target datalayout = "e-m:e-p270:32:32-p271:32:32-p272:64:64-i64:64-i128:128-f80:128-n8:16:32:64-S128"
target triple = "x86_64-pc-linux-gnu"

%struct.slurm_conf_t = type { i64, ptr, i16, ptr, ptr, ptr, ptr, ptr, i16, ptr, ptr, ptr, ptr, ptr, ptr, ptr, i16, ptr, ptr, ptr, ptr, i16, ptr, ptr, ptr, i64, ptr, ptr, ptr, ptr, i16, ptr, ptr, i16, i32, ptr, i32, ptr, i32, i32, ptr, ptr, i64, i64, ptr, i16, i16, ptr, i32, i32, ptr, i32, ptr, i32, i16, i16, i16, ptr, i16, i16, ptr, ptr, i32, i16, i16, ptr, i32, i16, ptr, ptr, ptr, ptr, i16, ptr, ptr, ptr, ptr, i32, ptr, ptr, ptr, ptr, i16, i16, ptr, i32, i32, i32, i16, i16, ptr, ptr, i16, ptr, ptr, i32, i32, i32, i32, i32, i64, i32, i32, i16, ptr, ptr, i32, ptr, ptr, ptr, i16, i32, ptr, ptr, i16, ptr, ptr, i32, i16, ptr, ptr, ptr, ptr, i32, i32, i16, i16, i32, ptr, i16, ptr, i32, i32, i32, i32, i32, i32, ptr, i16, ptr, ptr, i32, i16, ptr, i32, i16, i16, ptr, ptr, ptr, i16, ptr, ptr, ptr, ptr, i16, i16, ptr, i16, ptr, i16, ptr, i16, ptr, i16, ptr, ptr, ptr, ptr, i16, ptr, ptr, ptr, i32, ptr, i32, ptr, ptr, i16, ptr, ptr, i32, i16, ptr, ptr, i16, i16, ptr, i16, ptr, ptr, ptr, i32, ptr, i16, i16, ptr, ptr, ptr, ptr, ptr, ptr, ptr, ptr, i16, i32, i16, ptr, ptr, ptr, ptr, i32, ptr, ptr, ptr, i16, ptr, ptr, ptr, i16, ptr, i16, ptr, i16, i16, ptr }
%struct.data_s = type { i32, i32, %union.anon }
%union.anon = type { ptr }
%struct.data_list_s = type { i32, i64, ptr, ptr }

@.str = private unnamed_addr constant [7 x i8] c"data.c\00", align 1
@slurm_conf = external global %struct.slurm_conf_t, align 8
@.str.10 = private unnamed_addr constant [26 x i8] c"DATA: %s: set %pD to list\00", align 1
@__func__.data_set_list = private unnamed_addr constant [14 x i8] c"data_set_list\00", align 1
@__func__._data_list_new = private unnamed_addr constant [15 x i8] c"_data_list_new\00", align 1
@.str.73 = private unnamed_addr constant [36 x i8] c"DATA: %s: new data-list(0x%lx)[%zu]\00", align 1

; Function Attrs: nounwind uwtable
define internal void @_check_data_list_magic(ptr noundef %0) #0 {
  %2 = alloca ptr, align 8
  store ptr %0, ptr %2, align 8
  ret void
}

; Function Attrs: nounwind uwtable
define internal ptr @_data_list_new() #0 {
  %1 = alloca ptr, align 8
  call void @llvm.lifetime.start.p0(i64 8, ptr %1) #10
  %2 = call ptr @slurm_xcalloc(i64 noundef 1, i64 noundef 32, i1 noundef zeroext true, i1 noundef zeroext false, ptr noundef @.str, i32 noundef 157, ptr noundef @__func__._data_list_new)
  store ptr %2, ptr %1, align 8
  %3 = load ptr, ptr %1, align 8
  %4 = getelementptr inbounds nuw %struct.data_list_s, ptr %3, i32 0, i32 0
  store i32 429062303, ptr %4, align 8
  br label %5

5:                                                ; preds = %0
  %6 = load i64, ptr getelementptr inbounds nuw (%struct.slurm_conf_t, ptr @slurm_conf, i32 0, i32 42), align 8
  %7 = and i64 %6, 256
  %8 = icmp ne i64 %7, 0
  br i1 %8, label %9, label %22

9:                                                ; preds = %5
  br label %10

10:                                               ; preds = %9
  %11 = call i32 @get_log_level()
  %12 = icmp sge i32 %11, 4
  br i1 %12, label %13, label %19

13:                                               ; preds = %10
  %14 = load ptr, ptr %1, align 8
  %15 = ptrtoint ptr %14 to i64
  %16 = load ptr, ptr %1, align 8
  %17 = getelementptr inbounds nuw %struct.data_list_s, ptr %16, i32 0, i32 1
  %18 = load i64, ptr %17, align 8
  call void (i32, ptr, ...) @log_var(i32 noundef 4, ptr noundef @.str.73, ptr noundef @__func__._data_list_new, i64 noundef %15, i64 noundef %18)
  br label %19

19:                                               ; preds = %13, %10
  br label %20

20:                                               ; preds = %19
  br label %21

21:                                               ; preds = %20
  br label %22

22:                                               ; preds = %21, %5
  br label %23

23:                                               ; preds = %22
  br label %24

24:                                               ; preds = %23
  %25 = load ptr, ptr %1, align 8
  call void @llvm.lifetime.end.p0(i64 8, ptr %1) #10
  ret ptr %25
}

; Function Attrs: nounwind uwtable
define internal void @_check_magic(ptr noundef %0) #0 {
  %2 = alloca ptr, align 8
  store ptr %0, ptr %2, align 8
  %3 = load ptr, ptr %2, align 8
  %4 = icmp ne ptr %3, null
  br i1 %4, label %6, label %5

5:                                                ; preds = %1
  br label %29

6:                                                ; preds = %1
  %7 = load i64, ptr getelementptr inbounds nuw (%struct.slurm_conf_t, ptr @slurm_conf, i32 0, i32 42), align 8
  %8 = and i64 %7, 256
  %9 = icmp ne i64 %8, 0
  br i1 %9, label %10, label %29

10:                                               ; preds = %6
  %11 = load ptr, ptr %2, align 8
  %12 = getelementptr inbounds nuw %struct.data_s, ptr %11, i32 0, i32 1
  %13 = load i32, ptr %12, align 4
  %14 = icmp eq i32 %13, 65282
  br i1 %14, label %15, label %19

15:                                               ; preds = %10
  %16 = load ptr, ptr %2, align 8
  %17 = getelementptr inbounds nuw %struct.data_s, ptr %16, i32 0, i32 2
  %18 = load ptr, ptr %17, align 8
  call void @_check_data_list_magic(ptr noundef %18)
  br label %19

19:                                               ; preds = %15, %10
  %20 = load ptr, ptr %2, align 8
  %21 = getelementptr inbounds nuw %struct.data_s, ptr %20, i32 0, i32 1
  %22 = load i32, ptr %21, align 4
  %23 = icmp eq i32 %22, 65283
  br i1 %23, label %24, label %28

24:                                               ; preds = %19
  %25 = load ptr, ptr %2, align 8
  %26 = getelementptr inbounds nuw %struct.data_s, ptr %25, i32 0, i32 2
  %27 = load ptr, ptr %26, align 8
  call void @_check_data_list_magic(ptr noundef %27)
  br label %28

28:                                               ; preds = %24, %19
  br label %29

29:                                               ; preds = %5, %28, %6
  ret void
}

; Function Attrs: nounwind uwtable
define dso_local ptr @data_set_list(ptr noundef %0) #0 {
  %2 = alloca ptr, align 8
  %3 = alloca ptr, align 8
  store ptr %0, ptr %3, align 8
  %4 = load ptr, ptr %3, align 8
  call void @_check_magic(ptr noundef %4)
  %5 = load ptr, ptr %3, align 8
  %6 = icmp ne ptr %5, null
  br i1 %6, label %8, label %7

7:                                                ; preds = %1
  store ptr null, ptr %2, align 8
  br label %30

8:                                                ; preds = %1
  %9 = load ptr, ptr %3, align 8
  call void @_release(ptr noundef %9)
  %10 = load ptr, ptr %3, align 8
  %11 = getelementptr inbounds nuw %struct.data_s, ptr %10, i32 0, i32 1
  store i32 65282, ptr %11, align 4
  %12 = call ptr @_data_list_new()
  %13 = load ptr, ptr %3, align 8
  %14 = getelementptr inbounds nuw %struct.data_s, ptr %13, i32 0, i32 2
  store ptr %12, ptr %14, align 8
  br label %15

15:                                               ; preds = %8
  %16 = load i64, ptr getelementptr inbounds nuw (%struct.slurm_conf_t, ptr @slurm_conf, i32 0, i32 42), align 8
  %17 = and i64 %16, 256
  %18 = icmp ne i64 %17, 0
  br i1 %18, label %19, label %27

19:                                               ; preds = %15
  br label %20

20:                                               ; preds = %19
  %21 = call i32 @get_log_level()
  %22 = icmp sge i32 %21, 4
  br i1 %22, label %23, label %25

23:                                               ; preds = %20
  %24 = load ptr, ptr %3, align 8
  call void (i32, ptr, ...) @log_var(i32 noundef 4, ptr noundef @.str.10, ptr noundef @__func__.data_set_list, ptr noundef %24)
  br label %25

25:                                               ; preds = %23, %20
  br label %26

26:                                               ; preds = %25
  br label %27

27:                                               ; preds = %26, %15
  br label %28

28:                                               ; preds = %27
  %29 = load ptr, ptr %3, align 8
  store ptr %29, ptr %2, align 8
  br label %30

30:                                               ; preds = %28, %7
  %31 = load ptr, ptr %2, align 8
  ret ptr %31
}